; ModuleID = 'source-C-CXX/37/482.c'
source_filename = "source-C-CXX/37/482.c"
target datalayout = "e-m:e-p270:32:32-p271:32:32-p272:64:64-i64:64-f80:128-n8:16:32:64-S128"
target triple = "x86_64-pc-linux-gnu"

@.str = private unnamed_addr constant [3 x i8] c"%d\00", align 1
@.str.1 = private unnamed_addr constant [4 x i8] c"%d\0A\00", align 1
@.str.2 = private unnamed_addr constant [4 x i8] c"%lf\00", align 1
@.str.3 = private unnamed_addr constant [7 x i8] c"%.5lf\0A\00", align 1

; Function Attrs: nofree nounwind sspstrong uwtable
define dso_local i32 @main() local_unnamed_addr #0 {
  %1 = alloca [200 x i32], align 16
  %2 = alloca i32, align 4
  %3 = alloca [200 x double], align 16
  %4 = alloca [200 x double], align 16
  %5 = bitcast [200 x i32]* %1 to i8*
  call void @llvm.lifetime.start.p0i8(i64 800, i8* nonnull %5) #5
  %6 = bitcast i32* %2 to i8*
  call void @llvm.lifetime.start.p0i8(i64 4, i8* nonnull %6) #5
  %7 = bitcast [200 x double]* %3 to i8*
  call void @llvm.lifetime.start.p0i8(i64 1600, i8* nonnull %7) #5
  call void @llvm.memset.p0i8.i64(i8* noundef nonnull align 16 dereferenceable(1600) %7, i8 0, i64 1600, i1 false)
  %8 = bitcast [200 x double]* %4 to i8*
  call void @llvm.lifetime.start.p0i8(i64 1600, i8* nonnull %8) #5
  call void @llvm.memset.p0i8.i64(i8* noundef nonnull align 16 dereferenceable(1600) %8, i8 0, i64 1600, i1 false)
  %9 = call i32 (i8*, ...) @__isoc99_scanf(i8* getelementptr inbounds ([3 x i8], [3 x i8]* @.str, i64 0, i64 0), i32* nonnull %2)
  %10 = load i32, i32* %2, align 4, !tbaa !5
  %11 = icmp sgt i32 %10, 0
  br i1 %11, label %14, label %67

12:                                               ; preds = %53
  %13 = icmp sgt i32 %55, 0
  br i1 %13, label %58, label %67

14:                                               ; preds = %0, %53
  %15 = phi i64 [ %54, %53 ], [ 0, %0 ]
  %16 = getelementptr inbounds [200 x i32], [200 x i32]* %1, i64 0, i64 %15
  %17 = call i32 (i8*, ...) @__isoc99_scanf(i8* getelementptr inbounds ([4 x i8], [4 x i8]* @.str.1, i64 0, i64 0), i32* nonnull %16)
  %18 = load i32, i32* %16, align 4, !tbaa !5
  %19 = icmp sgt i32 %18, 0
  br i1 %19, label %20, label %53

20:                                               ; preds = %14, %20
  %21 = phi i64 [ %27, %20 ], [ 0, %14 ]
  %22 = phi double [ %26, %20 ], [ 0.000000e+00, %14 ]
  %23 = getelementptr inbounds [200 x double], [200 x double]* %3, i64 0, i64 %21
  %24 = call i32 (i8*, ...) @__isoc99_scanf(i8* getelementptr inbounds ([4 x i8], [4 x i8]* @.str.2, i64 0, i64 0), double* nonnull %23)
  %25 = load double, double* %23, align 8, !tbaa !9
  %26 = fadd double %22, %25
  %27 = add nuw nsw i64 %21, 1
  %28 = load i32, i32* %16, align 4, !tbaa !5
  %29 = sext i32 %28 to i64
  %30 = icmp slt i64 %27, %29
  br i1 %30, label %20, label %31, !llvm.loop !11

31:                                               ; preds = %20
  %32 = sitofp i32 %28 to double
  %33 = fdiv double %26, %32
  %34 = getelementptr inbounds [200 x double], [200 x double]* %4, i64 0, i64 %15
  %35 = icmp sgt i32 %28, 0
  br i1 %35, label %36, label %53

36:                                               ; preds = %31, %36
  %37 = phi i64 [ %48, %36 ], [ 0, %31 ]
  %38 = phi i32 [ %49, %36 ], [ %28, %31 ]
  %39 = phi double [ %44, %36 ], [ 0.000000e+00, %31 ]
  %40 = getelementptr inbounds [200 x double], [200 x double]* %3, i64 0, i64 %37
  %41 = load double, double* %40, align 8, !tbaa !9
  %42 = fsub double %41, %33
  %43 = fmul double %42, %42
  %44 = fadd double %39, %43
  %45 = sitofp i32 %38 to double
  %46 = fdiv double %44, %45
  %47 = call double @sqrt(double %46) #5
  %48 = add nuw nsw i64 %37, 1
  %49 = load i32, i32* %16, align 4, !tbaa !5
  %50 = sext i32 %49 to i64
  %51 = icmp slt i64 %48, %50
  br i1 %51, label %36, label %52, !llvm.loop !13

52:                                               ; preds = %36
  store double %47, double* %34, align 8, !tbaa !9
  br label %53

53:                                               ; preds = %14, %52, %31
  %54 = add nuw nsw i64 %15, 1
  %55 = load i32, i32* %2, align 4, !tbaa !5
  %56 = sext i32 %55 to i64
  %57 = icmp slt i64 %54, %56
  br i1 %57, label %14, label %12, !llvm.loop !14

58:                                               ; preds = %12, %58
  %59 = phi i64 [ %63, %58 ], [ 0, %12 ]
  %60 = getelementptr inbounds [200 x double], [200 x double]* %4, i64 0, i64 %59
  %61 = load double, double* %60, align 8, !tbaa !9
  %62 = call i32 (i8*, ...) @printf(i8* nonnull dereferenceable(1) getelementptr inbounds ([7 x i8], [7 x i8]* @.str.3, i64 0, i64 0), double %61)
  %63 = add nuw nsw i64 %59, 1
  %64 = load i32, i32* %2, align 4, !tbaa !5
  %65 = sext i32 %64 to i64
  %66 = icmp slt i64 %63, %65
  br i1 %66, label %58, label %67, !llvm.loop !15

67:                                               ; preds = %58, %0, %12
  call void @llvm.lifetime.end.p0i8(i64 1600, i8* nonnull %8) #5
  call void @llvm.lifetime.end.p0i8(i64 1600, i8* nonnull %7) #5
  call void @llvm.lifetime.end.p0i8(i64 4, i8* nonnull %6) #5
  call void @llvm.lifetime.end.p0i8(i64 800, i8* nonnull %5) #5
  ret i32 0
}

; Function Attrs: argmemonly mustprogress nofree nosync nounwind willreturn
declare void @llvm.lifetime.start.p0i8(i64 immarg, i8* nocapture) #1

; Function Attrs: argmemonly mustprogress nofree nounwind willreturn writeonly
declare void @llvm.memset.p0i8.i64(i8* nocapture writeonly, i8, i64, i1 immarg) #2

; Function Attrs: nofree nounwind
declare noundef i32 @__isoc99_scanf(i8* nocapture noundef readonly, ...) local_unnamed_addr #3

; Function Attrs: mustprogress nofree nounwind willreturn
declare double @sqrt(double) local_unnamed_addr #4

; Function Attrs: nofree nounwind
declare noundef i32 @printf(i8* nocapture noundef readonly, ...) local_unnamed_addr #3

; Function Attrs: argmemonly mustprogress nofree nosync nounwind willreturn
declare void @llvm.lifetime.end.p0i8(i64 immarg, i8* nocapture) #1


!llvm.module.flags = !{!0, !1, !2, !3}
!llvm.ident = !{!4}

!0 = !{i32 1, !"wchar_size", i32 4}
!1 = !{i32 7, !"PIC Level", i32 2}
!2 = !{i32 7, !"PIE Level", i32 2}
!3 = !{i32 7, !"uwtable", i32 1}
!4 = !{!"clang version 13.0.0"}
!5 = !{!6, !6, i64 0}
!6 = !{!"int", !7, i64 0}
!7 = !{!"omnipotent char", !8, i64 0}
!8 = !{!"Simple C/C++ TBAA"}
!9 = !{!10, !10, i64 0}
!10 = !{!"double", !7, i64 0}
!11 = distinct !{!11, !12}
!12 = !{!"llvm.loop.mustprogress"}
!13 = distinct !{!13, !12}
!14 = distinct !{!14, !12}
!15 = distinct !{!15, !12}
